#include <math.h>
#include <stdio.h>
#include <stdlib.h>
#include <string.h>

void main()
{
	char str[10000];
	char *p;
	gets(str);
	p=str;
	int k;
	k=0;
	while(*p!='\0')
	{
		if(*p!=' ') 
		{k++;p++;}
		else if(*(p-1)!=' ')
		{
			printf("%d,",k);
			p++;
			k=0;
			continue;
		}
		else {p++;continue;}
	}
	printf("%d",k);
}
	
