; ModuleID = '28/362.c'
source_filename = "28/362.c"
target datalayout = "e-m:e-p270:32:32-p271:32:32-p272:64:64-i64:64-f80:128-n8:16:32:64-S128"
target triple = "x86_64-pc-linux-gnu"

@.str = private unnamed_addr constant [4 x i8] c"%d,\00", align 1
@.str.1 = private unnamed_addr constant [3 x i8] c"%d\00", align 1

; Function Attrs: noinline nounwind uwtable
define dso_local void @main() #0 {
  %1 = alloca [10000 x i8], align 16
  %2 = alloca i8*, align 8
  %3 = alloca i32, align 4
  %4 = getelementptr inbounds [10000 x i8], [10000 x i8]* %1, i64 0, i64 0
  %5 = call i32 (i8*, ...) bitcast (i32 (...)* @gets to i32 (i8*, ...)*)(i8* %4)
  %6 = getelementptr inbounds [10000 x i8], [10000 x i8]* %1, i64 0, i64 0
  store i8* %6, i8** %2, align 8
  store i32 0, i32* %3, align 4
  br label %7

7:                                                ; preds = %36, %33, %28, %0
  %8 = load i8*, i8** %2, align 8
  %9 = load i8, i8* %8, align 1
  %10 = sext i8 %9 to i32
  %11 = icmp ne i32 %10, 0
  br i1 %11, label %12, label %37

12:                                               ; preds = %7
  %13 = load i8*, i8** %2, align 8
  %14 = load i8, i8* %13, align 1
  %15 = sext i8 %14 to i32
  %16 = icmp ne i32 %15, 32
  br i1 %16, label %17, label %22

17:                                               ; preds = %12
  %18 = load i32, i32* %3, align 4
  %19 = add nsw i32 %18, 1
  store i32 %19, i32* %3, align 4
  %20 = load i8*, i8** %2, align 8
  %21 = getelementptr inbounds i8, i8* %20, i32 1
  store i8* %21, i8** %2, align 8
  br label %36

22:                                               ; preds = %12
  %23 = load i8*, i8** %2, align 8
  %24 = getelementptr inbounds i8, i8* %23, i64 -1
  %25 = load i8, i8* %24, align 1
  %26 = sext i8 %25 to i32
  %27 = icmp ne i32 %26, 32
  br i1 %27, label %28, label %33

28:                                               ; preds = %22
  %29 = load i32, i32* %3, align 4
  %30 = call i32 (i8*, ...) @printf(i8* getelementptr inbounds ([4 x i8], [4 x i8]* @.str, i64 0, i64 0), i32 %29)
  %31 = load i8*, i8** %2, align 8
  %32 = getelementptr inbounds i8, i8* %31, i32 1
  store i8* %32, i8** %2, align 8
  store i32 0, i32* %3, align 4
  br label %7

33:                                               ; preds = %22
  %34 = load i8*, i8** %2, align 8
  %35 = getelementptr inbounds i8, i8* %34, i32 1
  store i8* %35, i8** %2, align 8
  br label %7

36:                                               ; preds = %17
  br label %7

37:                                               ; preds = %7
  %38 = load i32, i32* %3, align 4
  %39 = call i32 (i8*, ...) @printf(i8* getelementptr inbounds ([3 x i8], [3 x i8]* @.str.1, i64 0, i64 0), i32 %38)
  ret void
}

declare dso_local i32 @gets(...) #1

declare dso_local i32 @printf(i8*, ...) #1


!llvm.module.flags = !{!0}
!llvm.ident = !{!1}

!0 = !{i32 1, !"wchar_size", i32 4}
!1 = !{!"clang version 10.0.0-4ubuntu1 "}
